; ModuleID = '33/1676.c'
source_filename = "33/1676.c"
target datalayout = "e-m:e-p270:32:32-p271:32:32-p272:64:64-i64:64-f80:128-n8:16:32:64-S128"
target triple = "x86_64-pc-linux-gnu"

@.str = private unnamed_addr constant [3 x i8] c"%d\00", align 1
@.str.1 = private unnamed_addr constant [3 x i8] c"%s\00", align 1
@.str.2 = private unnamed_addr constant [4 x i8] c"%s\0A\00", align 1

; Function Attrs: noinline nounwind uwtable
define dso_local i32 @main() #0 {
  %1 = alloca i32, align 4
  %2 = alloca [256 x i8], align 16
  %3 = alloca i8*, align 8
  %4 = alloca i32, align 4
  %5 = alloca i32, align 4
  %6 = alloca i32, align 4
  %7 = alloca i32, align 4
  %8 = alloca i32, align 4
  store i32 0, i32* %1, align 4
  %9 = call i32 (i8*, ...) @__isoc99_scanf(i8* getelementptr inbounds ([3 x i8], [3 x i8]* @.str, i64 0, i64 0), i32* %4)
  store i32 0, i32* %7, align 4
  br label %10

10:                                               ; preds = %55, %0
  %11 = load i32, i32* %7, align 4
  %12 = load i32, i32* %4, align 4
  %13 = icmp slt i32 %11, %12
  br i1 %13, label %14, label %58

14:                                               ; preds = %10
  %15 = getelementptr inbounds [256 x i8], [256 x i8]* %2, i64 0, i64 0
  %16 = call i32 (i8*, ...) @__isoc99_scanf(i8* getelementptr inbounds ([3 x i8], [3 x i8]* @.str.1, i64 0, i64 0), i8* %15)
  %17 = getelementptr inbounds [256 x i8], [256 x i8]* %2, i64 0, i64 0
  store i8* %17, i8** %3, align 8
  br label %18

18:                                               ; preds = %49, %14
  %19 = load i8*, i8** %3, align 8
  %20 = load i8, i8* %19, align 1
  %21 = sext i8 %20 to i32
  %22 = icmp ne i32 %21, 0
  br i1 %22, label %23, label %52

23:                                               ; preds = %18
  %24 = load i8*, i8** %3, align 8
  %25 = load i8, i8* %24, align 1
  %26 = sext i8 %25 to i32
  %27 = icmp eq i32 %26, 65
  br i1 %27, label %28, label %30

28:                                               ; preds = %23
  %29 = load i8*, i8** %3, align 8
  store i8 84, i8* %29, align 1
  br label %48

30:                                               ; preds = %23
  %31 = load i8*, i8** %3, align 8
  %32 = load i8, i8* %31, align 1
  %33 = sext i8 %32 to i32
  %34 = icmp eq i32 %33, 84
  br i1 %34, label %35, label %37

35:                                               ; preds = %30
  %36 = load i8*, i8** %3, align 8
  store i8 65, i8* %36, align 1
  br label %47

37:                                               ; preds = %30
  %38 = load i8*, i8** %3, align 8
  %39 = load i8, i8* %38, align 1
  %40 = sext i8 %39 to i32
  %41 = icmp eq i32 %40, 67
  br i1 %41, label %42, label %44

42:                                               ; preds = %37
  %43 = load i8*, i8** %3, align 8
  store i8 71, i8* %43, align 1
  br label %46

44:                                               ; preds = %37
  %45 = load i8*, i8** %3, align 8
  store i8 67, i8* %45, align 1
  br label %46

46:                                               ; preds = %44, %42
  br label %47

47:                                               ; preds = %46, %35
  br label %48

48:                                               ; preds = %47, %28
  br label %49

49:                                               ; preds = %48
  %50 = load i8*, i8** %3, align 8
  %51 = getelementptr inbounds i8, i8* %50, i32 1
  store i8* %51, i8** %3, align 8
  br label %18

52:                                               ; preds = %18
  %53 = getelementptr inbounds [256 x i8], [256 x i8]* %2, i64 0, i64 0
  %54 = call i32 (i8*, ...) @printf(i8* getelementptr inbounds ([4 x i8], [4 x i8]* @.str.2, i64 0, i64 0), i8* %53)
  br label %55

55:                                               ; preds = %52
  %56 = load i32, i32* %7, align 4
  %57 = add nsw i32 %56, 1
  store i32 %57, i32* %7, align 4
  br label %10

58:                                               ; preds = %10
  ret i32 0
}

declare dso_local i32 @__isoc99_scanf(i8*, ...) #1

declare dso_local i32 @printf(i8*, ...) #1


!llvm.module.flags = !{!0}
!llvm.ident = !{!1}

!0 = !{i32 1, !"wchar_size", i32 4}
!1 = !{!"clang version 10.0.0-4ubuntu1 "}
